target datalayout = "e-m:e-p270:32:32-p271:32:32-p272:64:64-i64:64-i128:128-f80:128-n8:16:32:64-S128"
target triple = "x86_64-pc-linux-gnu"

%struct.bounds_t = type { %"struct.CFF::point_t", %"struct.CFF::point_t" }
%"struct.CFF::point_t" = type { %"struct.CFF::number_t", %"struct.CFF::number_t" }
%"struct.CFF::number_t" = type { double }
%struct.hb_glyph_extents_t = type { i32, i32, i32, i32 }

; Function Attrs: mustprogress nounwind uwtable
define linkonce_odr dso_local noundef zeroext i1 @_ZNK3CFF8number_tgtERKS0_(ptr noundef nonnull align 8 dereferenceable(8) %0, ptr noundef nonnull align 8 dereferenceable(8) %1) #0 comdat align 2 {
  %3 = alloca ptr, align 8
  %4 = alloca ptr, align 8
  store ptr %0, ptr %3, align 8, !tbaa !72
  store ptr %1, ptr %4, align 8, !tbaa !72
  %5 = load ptr, ptr %3, align 8
  %6 = getelementptr inbounds nuw %"struct.CFF::number_t", ptr %5, i32 0, i32 0
  %7 = load double, ptr %6, align 8, !tbaa !74
  %8 = load ptr, ptr %4, align 8, !tbaa !72
  %9 = call noundef double @_ZNK3CFF8number_t7to_realEv(ptr noundef nonnull align 8 dereferenceable(8) %8)
  %10 = fcmp ogt double %7, %9
  ret i1 %10
}

; Function Attrs: inlinehint mustprogress nounwind uwtable
define linkonce_odr dso_local void @_ZN3CFF8number_tC2Ev(ptr noundef nonnull align 8 dereferenceable(8) %0) unnamed_addr #1 comdat align 2 {
  %2 = alloca ptr, align 8
  store ptr %0, ptr %2, align 8, !tbaa !72
  %3 = load ptr, ptr %2, align 8
  %4 = getelementptr inbounds nuw %"struct.CFF::number_t", ptr %3, i32 0, i32 0
  store double 0.000000e+00, ptr %4, align 8, !tbaa !74
  ret void
}

; Function Attrs: mustprogress nounwind uwtable
define linkonce_odr dso_local noundef zeroext i1 @_ZNK3CFF8number_tltERKS0_(ptr noundef nonnull align 8 dereferenceable(8) %0, ptr noundef nonnull align 8 dereferenceable(8) %1) #0 comdat align 2 {
  %3 = alloca ptr, align 8
  %4 = alloca ptr, align 8
  store ptr %0, ptr %3, align 8, !tbaa !72
  store ptr %1, ptr %4, align 8, !tbaa !72
  %5 = load ptr, ptr %3, align 8
  %6 = load ptr, ptr %4, align 8, !tbaa !72
  %7 = call noundef zeroext i1 @_ZNK3CFF8number_tgtERKS0_(ptr noundef nonnull align 8 dereferenceable(8) %6, ptr noundef nonnull align 8 dereferenceable(8) %5)
  ret i1 %7
}

; Function Attrs: inlinehint mustprogress nounwind uwtable
define linkonce_odr dso_local void @_ZN3CFF7point_tC2Ev(ptr noundef nonnull align 8 dereferenceable(16) %0) unnamed_addr #1 comdat align 2 {
  %2 = alloca ptr, align 8
  store ptr %0, ptr %2, align 8, !tbaa !105
  %3 = load ptr, ptr %2, align 8
  %4 = getelementptr inbounds nuw %"struct.CFF::point_t", ptr %3, i32 0, i32 0
  call void @_ZN3CFF8number_tC2Ev(ptr noundef nonnull align 8 dereferenceable(8) %4) #8
  %5 = getelementptr inbounds nuw %"struct.CFF::point_t", ptr %3, i32 0, i32 1
  call void @_ZN3CFF8number_tC2Ev(ptr noundef nonnull align 8 dereferenceable(8) %5) #8
  ret void
}

; Function Attrs: inlinehint mustprogress nounwind uwtable
define internal noundef double @_ZL10_hb_roundfd(double noundef %0) #1 {
  %2 = alloca double, align 8
  store double %0, ptr %2, align 8, !tbaa !70
  %3 = load double, ptr %2, align 8, !tbaa !70
  %4 = fadd double %3, 5.000000e-01
  %5 = call double @llvm.floor.f64(double %4)
  ret double %5
}

; Function Attrs: mustprogress nounwind uwtable
define linkonce_odr dso_local noundef double @_ZNK3CFF8number_t7to_realEv(ptr noundef nonnull align 8 dereferenceable(8) %0) #0 comdat align 2 {
  %2 = alloca ptr, align 8
  store ptr %0, ptr %2, align 8, !tbaa !72
  %3 = load ptr, ptr %2, align 8
  %4 = getelementptr inbounds nuw %"struct.CFF::number_t", ptr %3, i32 0, i32 0
  %5 = load double, ptr %4, align 8, !tbaa !74
  ret double %5
}

; Function Attrs: mustprogress nounwind uwtable
define linkonce_odr dso_local noundef zeroext i1 @_ZNK3CFF8number_tgeERKS0_(ptr noundef nonnull align 8 dereferenceable(8) %0, ptr noundef nonnull align 8 dereferenceable(8) %1) #0 comdat align 2 {
  %3 = alloca ptr, align 8
  %4 = alloca ptr, align 8
  store ptr %0, ptr %3, align 8, !tbaa !72
  store ptr %1, ptr %4, align 8, !tbaa !72
  %5 = load ptr, ptr %3, align 8
  %6 = load ptr, ptr %4, align 8, !tbaa !72
  %7 = call noundef zeroext i1 @_ZNK3CFF8number_tltERKS0_(ptr noundef nonnull align 8 dereferenceable(8) %5, ptr noundef nonnull align 8 dereferenceable(8) %6)
  %8 = xor i1 %7, true
  ret i1 %8
}

; Function Attrs: inlinehint mustprogress nounwind uwtable
define linkonce_odr dso_local void @_ZN8bounds_tC2Ev(ptr noundef nonnull align 8 dereferenceable(32) %0) unnamed_addr #1 comdat align 2 {
  %2 = alloca ptr, align 8
  store ptr %0, ptr %2, align 8, !tbaa !37
  %3 = load ptr, ptr %2, align 8
  %4 = getelementptr inbounds nuw %struct.bounds_t, ptr %3, i32 0, i32 0
  call void @_ZN3CFF7point_tC2Ev(ptr noundef nonnull align 8 dereferenceable(16) %4) #8
  %5 = getelementptr inbounds nuw %struct.bounds_t, ptr %3, i32 0, i32 1
  call void @_ZN3CFF7point_tC2Ev(ptr noundef nonnull align 8 dereferenceable(16) %5) #8
  ret void
}

; Function Attrs: mustprogress nounwind uwtable
define hidden noundef zeroext i1 @_ZNK2OT4cff113accelerator_t11get_extentsEP9hb_font_tjP18hb_glyph_extents_t(ptr noundef nonnull align 8 dereferenceable(312) %0, ptr noundef %1, i32 noundef %2, ptr noundef %3) #0 align 2 {
  %5 = alloca i1, align 1
  %6 = alloca ptr, align 8
  %7 = alloca ptr, align 8
  %8 = alloca i32, align 4
  %9 = alloca ptr, align 8
  %10 = alloca %struct.bounds_t, align 8
  %11 = alloca i32, align 4
  store ptr %0, ptr %6, align 8, !tbaa !26
  store ptr %1, ptr %7, align 8, !tbaa !28
  store i32 %2, ptr %8, align 4, !tbaa !4
  store ptr %3, ptr %9, align 8, !tbaa !30
  %12 = load ptr, ptr %6, align 8
  call void @llvm.lifetime.start.p0(i64 32, ptr %10) #8
  call void @_ZN8bounds_tC2Ev(ptr noundef nonnull align 8 dereferenceable(32) %10) #8
  %13 = load i32, ptr %8, align 4, !tbaa !4
  %14 = call noundef zeroext i1 @_ZL11_get_boundsPKN2OT4cff113accelerator_tEjR8bounds_tb(ptr noundef %12, i32 noundef %13, ptr noundef nonnull align 8 dereferenceable(32) %10, i1 noundef zeroext false)
  br i1 %14, label %16, label %15

15:                                               ; preds = %4
  store i1 false, ptr %5, align 1
  store i32 1, ptr %11, align 4
  br label %81

16:                                               ; preds = %4
  %17 = getelementptr inbounds nuw %struct.bounds_t, ptr %10, i32 0, i32 0
  %18 = getelementptr inbounds nuw %"struct.CFF::point_t", ptr %17, i32 0, i32 0
  %19 = getelementptr inbounds nuw %struct.bounds_t, ptr %10, i32 0, i32 1
  %20 = getelementptr inbounds nuw %"struct.CFF::point_t", ptr %19, i32 0, i32 0
  %21 = call noundef zeroext i1 @_ZNK3CFF8number_tgeERKS0_(ptr noundef nonnull align 8 dereferenceable(8) %18, ptr noundef nonnull align 8 dereferenceable(8) %20)
  br i1 %21, label %22, label %27

22:                                               ; preds = %16
  %23 = load ptr, ptr %9, align 8, !tbaa !30
  %24 = getelementptr inbounds nuw %struct.hb_glyph_extents_t, ptr %23, i32 0, i32 2
  store i32 0, ptr %24, align 4, !tbaa !32
  %25 = load ptr, ptr %9, align 8, !tbaa !30
  %26 = getelementptr inbounds nuw %struct.hb_glyph_extents_t, ptr %25, i32 0, i32 0
  store i32 0, ptr %26, align 4, !tbaa !34
  br label %47

27:                                               ; preds = %16
  %28 = getelementptr inbounds nuw %struct.bounds_t, ptr %10, i32 0, i32 0
  %29 = getelementptr inbounds nuw %"struct.CFF::point_t", ptr %28, i32 0, i32 0
  %30 = call noundef double @_ZNK3CFF8number_t7to_realEv(ptr noundef nonnull align 8 dereferenceable(8) %29)
  %31 = call noundef double @_ZL10_hb_roundfd(double noundef %30)
  %32 = fptosi double %31 to i32
  %33 = load ptr, ptr %9, align 8, !tbaa !30
  %34 = getelementptr inbounds nuw %struct.hb_glyph_extents_t, ptr %33, i32 0, i32 0
  store i32 %32, ptr %34, align 4, !tbaa !34
  %35 = getelementptr inbounds nuw %struct.bounds_t, ptr %10, i32 0, i32 1
  %36 = getelementptr inbounds nuw %"struct.CFF::point_t", ptr %35, i32 0, i32 0
  %37 = call noundef double @_ZNK3CFF8number_t7to_realEv(ptr noundef nonnull align 8 dereferenceable(8) %36)
  %38 = load ptr, ptr %9, align 8, !tbaa !30
  %39 = getelementptr inbounds nuw %struct.hb_glyph_extents_t, ptr %38, i32 0, i32 0
  %40 = load i32, ptr %39, align 4, !tbaa !34
  %41 = sitofp i32 %40 to double
  %42 = fsub double %37, %41
  %43 = call noundef double @_ZL10_hb_roundfd(double noundef %42)
  %44 = fptosi double %43 to i32
  %45 = load ptr, ptr %9, align 8, !tbaa !30
  %46 = getelementptr inbounds nuw %struct.hb_glyph_extents_t, ptr %45, i32 0, i32 2
  store i32 %44, ptr %46, align 4, !tbaa !32
  br label %47

47:                                               ; preds = %27, %22
  %48 = getelementptr inbounds nuw %struct.bounds_t, ptr %10, i32 0, i32 0
  %49 = getelementptr inbounds nuw %"struct.CFF::point_t", ptr %48, i32 0, i32 1
  %50 = getelementptr inbounds nuw %struct.bounds_t, ptr %10, i32 0, i32 1
  %51 = getelementptr inbounds nuw %"struct.CFF::point_t", ptr %50, i32 0, i32 1
  %52 = call noundef zeroext i1 @_ZNK3CFF8number_tgeERKS0_(ptr noundef nonnull align 8 dereferenceable(8) %49, ptr noundef nonnull align 8 dereferenceable(8) %51)
  br i1 %52, label %53, label %58

53:                                               ; preds = %47
  %54 = load ptr, ptr %9, align 8, !tbaa !30
  %55 = getelementptr inbounds nuw %struct.hb_glyph_extents_t, ptr %54, i32 0, i32 3
  store i32 0, ptr %55, align 4, !tbaa !35
  %56 = load ptr, ptr %9, align 8, !tbaa !30
  %57 = getelementptr inbounds nuw %struct.hb_glyph_extents_t, ptr %56, i32 0, i32 1
  store i32 0, ptr %57, align 4, !tbaa !36
  br label %78

58:                                               ; preds = %47
  %59 = getelementptr inbounds nuw %struct.bounds_t, ptr %10, i32 0, i32 1
  %60 = getelementptr inbounds nuw %"struct.CFF::point_t", ptr %59, i32 0, i32 1
  %61 = call noundef double @_ZNK3CFF8number_t7to_realEv(ptr noundef nonnull align 8 dereferenceable(8) %60)
  %62 = call noundef double @_ZL10_hb_roundfd(double noundef %61)
  %63 = fptosi double %62 to i32
  %64 = load ptr, ptr %9, align 8, !tbaa !30
  %65 = getelementptr inbounds nuw %struct.hb_glyph_extents_t, ptr %64, i32 0, i32 1
  store i32 %63, ptr %65, align 4, !tbaa !36
  %66 = getelementptr inbounds nuw %struct.bounds_t, ptr %10, i32 0, i32 0
  %67 = getelementptr inbounds nuw %"struct.CFF::point_t", ptr %66, i32 0, i32 1
  %68 = call noundef double @_ZNK3CFF8number_t7to_realEv(ptr noundef nonnull align 8 dereferenceable(8) %67)
  %69 = load ptr, ptr %9, align 8, !tbaa !30
  %70 = getelementptr inbounds nuw %struct.hb_glyph_extents_t, ptr %69, i32 0, i32 1
  %71 = load i32, ptr %70, align 4, !tbaa !36
  %72 = sitofp i32 %71 to double
  %73 = fsub double %68, %72
  %74 = call noundef double @_ZL10_hb_roundfd(double noundef %73)
  %75 = fptosi double %74 to i32
  %76 = load ptr, ptr %9, align 8, !tbaa !30
  %77 = getelementptr inbounds nuw %struct.hb_glyph_extents_t, ptr %76, i32 0, i32 3
  store i32 %75, ptr %77, align 4, !tbaa !35
  br label %78

78:                                               ; preds = %58, %53
  %79 = load ptr, ptr %7, align 8, !tbaa !28
  %80 = load ptr, ptr %9, align 8, !tbaa !30
  call void @_ZN9hb_font_t19scale_glyph_extentsEP18hb_glyph_extents_t(ptr noundef nonnull align 8 dereferenceable(192) %79, ptr noundef %80)
  store i1 true, ptr %5, align 1
  store i32 1, ptr %11, align 4
  br label %81

81:                                               ; preds = %78, %15
  call void @llvm.lifetime.end.p0(i64 32, ptr %10) #8
  %82 = load i1, ptr %5, align 1
  ret i1 %82
}