; Function Attrs: mustprogress nounwind uwtable
define hidden noundef zeroext i1 @_ZNK2OT4cff113accelerator_t11get_extentsEP9hb_font_tjP18hb_glyph_extents_t(ptr noundef nonnull align 8 dereferenceable(312) %0, ptr noundef %1, i32 noundef %2, ptr noundef %3) local_unnamed_addr #2 align 2 {
  %5 = alloca %struct.bounds_t, align 8
  call void @llvm.lifetime.start.p0(i64 32, ptr nonnull %5) #7
  %6 = call fastcc noundef zeroext i1 @_ZL11_get_boundsPKN2OT4cff113accelerator_tEjR8bounds_tb(ptr noundef nonnull %0, i32 noundef %2, ptr noundef nonnull align 8 dereferenceable(32) %5, i1 noundef zeroext false)
  br i1 %6, label %7, label %40

7:                                                ; preds = %4
  %8 = getelementptr inbounds nuw i8, ptr %5, i64 16
  %9 = load double, ptr %8, align 8, !tbaa !14
  %10 = load double, ptr %5, align 8, !tbaa !14
  %11 = fcmp ule double %9, %10
  br i1 %11, label %21, label %12

12:                                               ; preds = %7
  %13 = fadd double %10, 5.000000e-01
  %14 = tail call noundef double @llvm.floor.f64(double %13)
  %15 = fptosi double %14 to i32
  %16 = sitofp i32 %15 to double
  %17 = fsub double %9, %16
  %18 = fadd double %17, 5.000000e-01
  %19 = tail call noundef double @llvm.floor.f64(double %18)
  %20 = fptosi double %19 to i32
  br label %21

21:                                               ; preds = %7, %12
  %.sink14 = phi i32 [ %20, %12 ], [ 0, %7 ]
  %.sink = phi i32 [ %15, %12 ], [ 0, %7 ]
  %22 = getelementptr inbounds nuw i8, ptr %3, i64 8
  store i32 %.sink14, ptr %22, align 4, !tbaa !17
  store i32 %.sink, ptr %3, align 4, !tbaa !20
  %23 = getelementptr inbounds nuw i8, ptr %5, i64 8
  %24 = getelementptr inbounds nuw i8, ptr %5, i64 24
  %25 = load double, ptr %24, align 8, !tbaa !14
  %26 = load double, ptr %23, align 8, !tbaa !14
  %27 = fcmp ule double %25, %26
  br i1 %27, label %37, label %28

28:                                               ; preds = %21
  %29 = fadd double %25, 5.000000e-01
  %30 = tail call noundef double @llvm.floor.f64(double %29)
  %31 = fptosi double %30 to i32
  %32 = sitofp i32 %31 to double
  %33 = fsub double %26, %32
  %34 = fadd double %33, 5.000000e-01
  %35 = tail call noundef double @llvm.floor.f64(double %34)
  %36 = fptosi double %35 to i32
  br label %37

37:                                               ; preds = %21, %28
  %.sink16 = phi i32 [ %36, %28 ], [ 0, %21 ]
  %.sink15 = phi i32 [ %31, %28 ], [ 0, %21 ]
  %38 = getelementptr inbounds nuw i8, ptr %3, i64 12
  store i32 %.sink16, ptr %38, align 4, !tbaa !21
  %39 = getelementptr inbounds nuw i8, ptr %3, i64 4
  store i32 %.sink15, ptr %39, align 4, !tbaa !22
  tail call void @_ZN9hb_font_t19scale_glyph_extentsEP18hb_glyph_extents_t(ptr noundef nonnull align 8 dereferenceable(192) %1, ptr noundef nonnull %3)
  br label %40

40:                                               ; preds = %4, %37
  call void @llvm.lifetime.end.p0(i64 32, ptr nonnull %5) #7
  ret i1 %6
}